; ModuleID = 'source-C-CXX/25/1080.c'
source_filename = "source-C-CXX/25/1080.c"
target datalayout = "e-m:e-p270:32:32-p271:32:32-p272:64:64-i64:64-f80:128-n8:16:32:64-S128"
target triple = "x86_64-pc-linux-gnu"

@.str = private unnamed_addr constant [3 x i8] c"%s\00", align 1

; Function Attrs: nounwind sspstrong uwtable
define dso_local i32 @main() local_unnamed_addr #0 {
  %1 = alloca [101 x i8], align 16
  %2 = alloca [101 x i8], align 16
  %3 = getelementptr inbounds [101 x i8], [101 x i8]* %1, i64 0, i64 0
  call void @llvm.lifetime.start.p0i8(i64 101, i8* nonnull %3) #5
  %4 = getelementptr inbounds [101 x i8], [101 x i8]* %2, i64 0, i64 0
  call void @llvm.lifetime.start.p0i8(i64 101, i8* nonnull %4) #5
  %5 = call i32 (i8*, ...) bitcast (i32 (...)* @gets to i32 (i8*, ...)*)(i8* nonnull %3) #5
  %6 = call i64 @strlen(i8* noundef nonnull %3) #6
  %7 = trunc i64 %6 to i32
  %8 = icmp sgt i32 %7, 0
  br i1 %8, label %9, label %45

9:                                                ; preds = %0, %34
  %10 = phi i32 [ %40, %34 ], [ 0, %0 ]
  %11 = phi i32 [ %41, %34 ], [ 0, %0 ]
  %12 = sext i32 %11 to i64
  %13 = getelementptr inbounds [101 x i8], [101 x i8]* %1, i64 0, i64 %12
  %14 = load i8, i8* %13, align 1, !tbaa !5
  %15 = icmp eq i8 %14, 32
  br i1 %15, label %16, label %34

16:                                               ; preds = %9
  %17 = add nsw i32 %11, 1
  %18 = sext i32 %17 to i64
  %19 = getelementptr inbounds [101 x i8], [101 x i8]* %1, i64 0, i64 %18
  %20 = load i8, i8* %19, align 1, !tbaa !5
  %21 = icmp eq i8 %20, 32
  br i1 %21, label %22, label %34

22:                                               ; preds = %16
  %23 = sext i32 %10 to i64
  %24 = getelementptr inbounds [101 x i8], [101 x i8]* %2, i64 0, i64 %23
  store i8 32, i8* %24, align 1, !tbaa !5
  br label %25

25:                                               ; preds = %22, %25
  %26 = phi i64 [ %12, %22 ], [ %27, %25 ]
  %27 = add i64 %26, 1
  %28 = getelementptr inbounds [101 x i8], [101 x i8]* %1, i64 0, i64 %27
  %29 = load i8, i8* %28, align 1, !tbaa !5
  %30 = icmp eq i8 %29, 32
  br i1 %30, label %25, label %31, !llvm.loop !8

31:                                               ; preds = %25
  %32 = add nsw i32 %10, 1
  %33 = trunc i64 %27 to i32
  br label %34

34:                                               ; preds = %9, %16, %31
  %35 = phi i32 [ %32, %31 ], [ %10, %16 ], [ %10, %9 ]
  %36 = phi i8 [ %29, %31 ], [ %14, %16 ], [ %14, %9 ]
  %37 = phi i32 [ %33, %31 ], [ %11, %16 ], [ %11, %9 ]
  %38 = sext i32 %35 to i64
  %39 = getelementptr inbounds [101 x i8], [101 x i8]* %2, i64 0, i64 %38
  store i8 %36, i8* %39, align 1, !tbaa !5
  %40 = add nsw i32 %35, 1
  %41 = add nsw i32 %37, 1
  %42 = icmp slt i32 %41, %7
  br i1 %42, label %9, label %43, !llvm.loop !10

43:                                               ; preds = %34
  %44 = sext i32 %40 to i64
  br label %45

45:                                               ; preds = %43, %0
  %46 = phi i64 [ 0, %0 ], [ %44, %43 ]
  %47 = getelementptr inbounds [101 x i8], [101 x i8]* %2, i64 0, i64 %46
  store i8 0, i8* %47, align 1, !tbaa !5
  %48 = call i32 (i8*, ...) @printf(i8* nonnull dereferenceable(1) getelementptr inbounds ([3 x i8], [3 x i8]* @.str, i64 0, i64 0), i8* nonnull %4)
  call void @llvm.lifetime.end.p0i8(i64 101, i8* nonnull %4) #5
  call void @llvm.lifetime.end.p0i8(i64 101, i8* nonnull %3) #5
  ret i32 0
}

; Function Attrs: argmemonly mustprogress nofree nosync nounwind willreturn
declare void @llvm.lifetime.start.p0i8(i64 immarg, i8* nocapture) #1

declare i32 @gets(...) local_unnamed_addr #2

; Function Attrs: argmemonly mustprogress nofree nounwind readonly willreturn
declare i64 @strlen(i8* nocapture) local_unnamed_addr #3

; Function Attrs: nofree nounwind
declare noundef i32 @printf(i8* nocapture noundef readonly, ...) local_unnamed_addr #4

; Function Attrs: argmemonly mustprogress nofree nosync nounwind willreturn
declare void @llvm.lifetime.end.p0i8(i64 immarg, i8* nocapture) #1


!llvm.module.flags = !{!0, !1, !2, !3}
!llvm.ident = !{!4}

!0 = !{i32 1, !"wchar_size", i32 4}
!1 = !{i32 7, !"PIC Level", i32 2}
!2 = !{i32 7, !"PIE Level", i32 2}
!3 = !{i32 7, !"uwtable", i32 1}
!4 = !{!"clang version 13.0.0"}
!5 = !{!6, !6, i64 0}
!6 = !{!"omnipotent char", !7, i64 0}
!7 = !{!"Simple C/C++ TBAA"}
!8 = distinct !{!8, !9}
!9 = !{!"llvm.loop.mustprogress"}
!10 = distinct !{!10, !9}
